target datalayout = "e-m:e-p270:32:32-p271:32:32-p272:64:64-i64:64-i128:128-f80:128-n8:16:32:64-S128"
target triple = "x86_64-pc-linux-gnu"

%"class.VrmlTranslator::Token" = type { i32, i32, i32, i32, ptr, ptr }
%"class.VrmlTranslator::Scanner" = type { ptr, ptr, ptr, ptr, i8, i32, i32, i32, i32, %"class.VrmlTranslator::StartStates", %"class.VrmlTranslator::KeywordMap", ptr, ptr, i32, i32, ptr, ptr, i32, i32, i32, i32, i32, ptr }
%"class.VrmlTranslator::StartStates" = type { ptr, ptr }
%"class.VrmlTranslator::KeywordMap" = type { ptr, ptr }

@_ZTIPKc = external constant ptr
@.str.75 = private unnamed_addr constant [21 x i8] c"Too long token value\00", align 1

; Function Attrs: mustprogress nounwind uwtable
define void @_ZN14VrmlTranslator7Scanner15CreateHeapBlockEv(ptr noundef nonnull align 8 dereferenceable(160) %0) #0 align 2 {
  %2 = alloca ptr, align 8
  %3 = alloca ptr, align 8
  %4 = alloca ptr, align 8
  store ptr %0, ptr %2, align 8
  %5 = load ptr, ptr %2, align 8
  %6 = getelementptr inbounds %"class.VrmlTranslator::Scanner", ptr %5, i32 0, i32 0
  %7 = load ptr, ptr %6, align 8
  store ptr %7, ptr %4, align 8
  br label %8

8:                                                ; preds = %21, %1
  %9 = getelementptr inbounds %"class.VrmlTranslator::Scanner", ptr %5, i32 0, i32 15
  %10 = load ptr, ptr %9, align 8
  %11 = load ptr, ptr %4, align 8
  %12 = icmp ult ptr %10, %11
  br i1 %12, label %19, label %13

13:                                               ; preds = %8
  %14 = getelementptr inbounds %"class.VrmlTranslator::Scanner", ptr %5, i32 0, i32 15
  %15 = load ptr, ptr %14, align 8
  %16 = load ptr, ptr %4, align 8
  %17 = getelementptr inbounds i8, ptr %16, i64 65536
  %18 = icmp ugt ptr %15, %17
  br label %19

19:                                               ; preds = %13, %8
  %20 = phi i1 [ true, %8 ], [ %18, %13 ]
  br i1 %20, label %21, label %29

21:                                               ; preds = %19
  %22 = load ptr, ptr %4, align 8
  %23 = getelementptr inbounds i8, ptr %22, i64 65536
  %24 = load ptr, ptr %23, align 8
  store ptr %24, ptr %4, align 8
  %25 = getelementptr inbounds %"class.VrmlTranslator::Scanner", ptr %5, i32 0, i32 0
  %26 = load ptr, ptr %25, align 8
  call void @free(ptr noundef %26) #12
  %27 = load ptr, ptr %4, align 8
  %28 = getelementptr inbounds %"class.VrmlTranslator::Scanner", ptr %5, i32 0, i32 0
  store ptr %27, ptr %28, align 8
  br label %8, !llvm.loop !33

29:                                               ; preds = %19
  %30 = call noalias ptr @malloc(i64 noundef 65544) #18
  store ptr %30, ptr %3, align 8
  %31 = load ptr, ptr %3, align 8
  %32 = getelementptr inbounds %"class.VrmlTranslator::Scanner", ptr %5, i32 0, i32 3
  %33 = load ptr, ptr %32, align 8
  store ptr %31, ptr %33, align 8
  %34 = load ptr, ptr %3, align 8
  %35 = getelementptr inbounds i8, ptr %34, i64 65536
  %36 = getelementptr inbounds %"class.VrmlTranslator::Scanner", ptr %5, i32 0, i32 3
  store ptr %35, ptr %36, align 8
  %37 = getelementptr inbounds %"class.VrmlTranslator::Scanner", ptr %5, i32 0, i32 3
  %38 = load ptr, ptr %37, align 8
  store ptr null, ptr %38, align 8
  %39 = load ptr, ptr %3, align 8
  %40 = getelementptr inbounds %"class.VrmlTranslator::Scanner", ptr %5, i32 0, i32 1
  store ptr %39, ptr %40, align 8
  %41 = getelementptr inbounds %"class.VrmlTranslator::Scanner", ptr %5, i32 0, i32 1
  %42 = load ptr, ptr %41, align 8
  %43 = getelementptr inbounds %"class.VrmlTranslator::Scanner", ptr %5, i32 0, i32 2
  store ptr %42, ptr %43, align 8
  ret void
}

; Function Attrs: mustprogress uwtable
define void @_ZN14VrmlTranslator7Scanner9AppendValEPNS_5TokenE(ptr noundef nonnull align 8 dereferenceable(160) %0, ptr noundef %1) #1 align 2 {
  %3 = alloca ptr, align 8
  %4 = alloca ptr, align 8
  %5 = alloca i32, align 4
  store ptr %0, ptr %3, align 8
  store ptr %1, ptr %4, align 8
  %6 = load ptr, ptr %3, align 8
  %7 = getelementptr inbounds %"class.VrmlTranslator::Scanner", ptr %6, i32 0, i32 14
  %8 = load i32, ptr %7, align 4
  %9 = add nsw i32 %8, 1
  %10 = sext i32 %9 to i64
  %11 = mul i64 %10, 4
  %12 = trunc i64 %11 to i32
  store i32 %12, ptr %5, align 4
  %13 = getelementptr inbounds %"class.VrmlTranslator::Scanner", ptr %6, i32 0, i32 2
  %14 = load ptr, ptr %13, align 8
  %15 = load i32, ptr %5, align 4
  %16 = sext i32 %15 to i64
  %17 = getelementptr inbounds i8, ptr %14, i64 %16
  %18 = getelementptr inbounds %"class.VrmlTranslator::Scanner", ptr %6, i32 0, i32 3
  %19 = load ptr, ptr %18, align 8
  %20 = icmp uge ptr %17, %19
  br i1 %20, label %21, label %27

21:                                               ; preds = %2
  %22 = load i32, ptr %5, align 4
  %23 = icmp sgt i32 %22, 65536
  br i1 %23, label %24, label %26

24:                                               ; preds = %21
  %25 = call ptr @__cxa_allocate_exception(i64 8) #12
  store ptr @.str.75, ptr %25, align 16
  call void @__cxa_throw(ptr %25, ptr @_ZTIPKc, ptr null) #15
  unreachable

26:                                               ; preds = %21
  call void @_ZN14VrmlTranslator7Scanner15CreateHeapBlockEv(ptr noundef nonnull align 8 dereferenceable(160) %6)
  br label %27

27:                                               ; preds = %26, %2
  %28 = getelementptr inbounds %"class.VrmlTranslator::Scanner", ptr %6, i32 0, i32 2
  %29 = load ptr, ptr %28, align 8
  %30 = load ptr, ptr %4, align 8
  %31 = getelementptr inbounds %"class.VrmlTranslator::Token", ptr %30, i32 0, i32 4
  store ptr %29, ptr %31, align 8
  %32 = getelementptr inbounds %"class.VrmlTranslator::Scanner", ptr %6, i32 0, i32 2
  %33 = load ptr, ptr %32, align 8
  %34 = load i32, ptr %5, align 4
  %35 = sext i32 %34 to i64
  %36 = getelementptr inbounds i8, ptr %33, i64 %35
  %37 = getelementptr inbounds %"class.VrmlTranslator::Scanner", ptr %6, i32 0, i32 2
  store ptr %36, ptr %37, align 8
  %38 = load ptr, ptr %4, align 8
  %39 = getelementptr inbounds %"class.VrmlTranslator::Token", ptr %38, i32 0, i32 4
  %40 = load ptr, ptr %39, align 8
  %41 = getelementptr inbounds %"class.VrmlTranslator::Scanner", ptr %6, i32 0, i32 12
  %42 = load ptr, ptr %41, align 8
  %43 = getelementptr inbounds %"class.VrmlTranslator::Scanner", ptr %6, i32 0, i32 14
  %44 = load i32, ptr %43, align 4
  %45 = sext i32 %44 to i64
  %46 = call ptr @wcsncpy(ptr noundef %40, ptr noundef %42, i64 noundef %45) #12
  %47 = load ptr, ptr %4, align 8
  %48 = getelementptr inbounds %"class.VrmlTranslator::Token", ptr %47, i32 0, i32 4
  %49 = load ptr, ptr %48, align 8
  %50 = getelementptr inbounds %"class.VrmlTranslator::Scanner", ptr %6, i32 0, i32 14
  %51 = load i32, ptr %50, align 4
  %52 = sext i32 %51 to i64
  %53 = getelementptr inbounds i32, ptr %49, i64 %52
  store i32 0, ptr %53, align 4
  ret void
}