; Function Attrs: mustprogress uwtable
define void @_ZN14VrmlTranslator7Scanner9AppendValEPNS_5TokenE(ptr nocapture noundef nonnull align 8 dereferenceable(160) %0, ptr nocapture noundef %1) local_unnamed_addr #2 align 2 {
  %3 = getelementptr inbounds i8, ptr %0, i64 108
  %4 = load i32, ptr %3, align 4
  %5 = shl i32 %4, 2
  %6 = add i32 %5, 4
  %7 = getelementptr inbounds i8, ptr %0, i64 16
  %8 = load ptr, ptr %7, align 8
  %9 = sext i32 %6 to i64
  %10 = getelementptr inbounds i8, ptr %8, i64 %9
  %11 = getelementptr inbounds i8, ptr %0, i64 24
  %12 = load ptr, ptr %11, align 8
  %.not = icmp ult ptr %10, %12
  br i1 %.not, label %35, label %13

13:                                               ; preds = %2
  %14 = icmp sgt i32 %6, 65536
  br i1 %14, label %15, label %17

15:                                               ; preds = %13
  %16 = tail call ptr @__cxa_allocate_exception(i64 8) #22
  store ptr @.str.75, ptr %16, align 16
  tail call void @__cxa_throw(ptr nonnull %16, ptr nonnull @_ZTIPKc, ptr null) #23
  unreachable

17:                                               ; preds = %13
  %18 = load ptr, ptr %0, align 8
  %19 = getelementptr inbounds i8, ptr %0, i64 112
  %20 = load ptr, ptr %19, align 8
  %21 = icmp ult ptr %20, %18
  %22 = getelementptr inbounds i8, ptr %18, i64 65536
  %23 = icmp ugt ptr %20, %22
  %or.cond10.i = select i1 %21, i1 true, i1 %23
  br i1 %or.cond10.i, label %.critedge.i, label %_ZN14VrmlTranslator7Scanner15CreateHeapBlockEv.exit

.critedge.i:                                      ; preds = %17, %.critedge.i
  %24 = phi ptr [ %26, %.critedge.i ], [ %18, %17 ]
  %25 = phi ptr [ %29, %.critedge.i ], [ %22, %17 ]
  %26 = load ptr, ptr %25, align 8
  tail call void @free(ptr noundef %24) #22
  store ptr %26, ptr %0, align 8
  %27 = load ptr, ptr %19, align 8
  %28 = icmp ult ptr %27, %26
  %29 = getelementptr inbounds i8, ptr %26, i64 65536
  %30 = icmp ugt ptr %27, %29
  %or.cond.i = select i1 %28, i1 true, i1 %30
  br i1 %or.cond.i, label %.critedge.i, label %_ZN14VrmlTranslator7Scanner15CreateHeapBlockEv.exit.loopexit, !llvm.loop !21

_ZN14VrmlTranslator7Scanner15CreateHeapBlockEv.exit.loopexit: ; preds = %.critedge.i
  %.pre = load ptr, ptr %11, align 8
  br label %_ZN14VrmlTranslator7Scanner15CreateHeapBlockEv.exit

_ZN14VrmlTranslator7Scanner15CreateHeapBlockEv.exit: ; preds = %_ZN14VrmlTranslator7Scanner15CreateHeapBlockEv.exit.loopexit, %17
  %31 = phi ptr [ %.pre, %_ZN14VrmlTranslator7Scanner15CreateHeapBlockEv.exit.loopexit ], [ %12, %17 ]
  %32 = tail call noalias dereferenceable_or_null(65544) ptr @malloc(i64 noundef 65544) #25
  store ptr %32, ptr %31, align 8
  %33 = getelementptr inbounds i8, ptr %32, i64 65536
  store ptr %33, ptr %11, align 8
  store ptr null, ptr %33, align 8
  %34 = getelementptr inbounds i8, ptr %0, i64 8
  store ptr %32, ptr %34, align 8
  store ptr %32, ptr %7, align 8
  br label %35

35:                                               ; preds = %_ZN14VrmlTranslator7Scanner15CreateHeapBlockEv.exit, %2
  %36 = phi ptr [ %32, %_ZN14VrmlTranslator7Scanner15CreateHeapBlockEv.exit ], [ %8, %2 ]
  %37 = getelementptr inbounds i8, ptr %1, i64 16
  store ptr %36, ptr %37, align 8
  %38 = load ptr, ptr %7, align 8
  %39 = getelementptr inbounds i8, ptr %38, i64 %9
  store ptr %39, ptr %7, align 8
  %40 = load ptr, ptr %37, align 8
  %41 = getelementptr inbounds i8, ptr %0, i64 96
  %42 = load ptr, ptr %41, align 8
  %43 = load i32, ptr %3, align 4
  %44 = sext i32 %43 to i64
  %45 = tail call ptr @wcsncpy(ptr noundef %40, ptr noundef %42, i64 noundef %44) #22
  %46 = load ptr, ptr %37, align 8
  %47 = load i32, ptr %3, align 4
  %48 = sext i32 %47 to i64
  %49 = getelementptr inbounds i32, ptr %46, i64 %48
  store i32 0, ptr %49, align 4
  ret void
}